target datalayout = "e-m:e-p270:32:32-p271:32:32-p272:64:64-i64:64-i128:128-f80:128-n8:16:32:64-S128"
target triple = "x86_64-pc-linux-gnu"

@.str = private unnamed_addr constant [4 x i8] c"%*s\00", align 1
@.str.1 = private unnamed_addr constant [1 x i8] zeroinitializer, align 1
@.str.3 = private unnamed_addr constant [2 x i8] c"\0A\00", align 1
@.str.8 = private unnamed_addr constant [8 x i8] c"%*s%s:\0A\00", align 1
@.str.9 = private unnamed_addr constant [6 x i8] c": %s\0A\00", align 1
@.str.10 = private unnamed_addr constant [9 x i8] c"critical\00", align 1

; Function Attrs: inlinehint nounwind uwtable
define internal ptr @ossl_check_const_X509_EXTENSION_sk_type(ptr noundef %0) #3 {
  %2 = alloca ptr, align 8
  store ptr %0, ptr %2, align 8, !tbaa !36
  %3 = load ptr, ptr %2, align 8, !tbaa !36
  ret ptr %3
}

; Function Attrs: nounwind uwtable
define i32 @X509V3_extensions_print(ptr noundef %0, ptr noundef %1, ptr noundef %2, i64 noundef %3, i32 noundef %4) #0 {
  %6 = alloca i32, align 4
  %7 = alloca ptr, align 8
  %8 = alloca ptr, align 8
  %9 = alloca ptr, align 8
  %10 = alloca i64, align 8
  %11 = alloca i32, align 4
  %12 = alloca i32, align 4
  %13 = alloca i32, align 4
  %14 = alloca i32, align 4
  %15 = alloca ptr, align 8
  %16 = alloca ptr, align 8
  store ptr %0, ptr %7, align 8, !tbaa !3
  store ptr %1, ptr %8, align 8, !tbaa !23
  store ptr %2, ptr %9, align 8, !tbaa !36
  store i64 %3, ptr %10, align 8, !tbaa !21
  store i32 %4, ptr %11, align 4, !tbaa !10
  call void @llvm.lifetime.start.p0(i64 4, ptr %12) #4
  call void @llvm.lifetime.start.p0(i64 4, ptr %13) #4
  %17 = load ptr, ptr %9, align 8, !tbaa !36
  %18 = call ptr @ossl_check_const_X509_EXTENSION_sk_type(ptr noundef %17)
  %19 = call i32 @OPENSSL_sk_num(ptr noundef %18)
  %20 = icmp sle i32 %19, 0
  br i1 %20, label %21, label %22

21:                                               ; preds = %5
  store i32 1, ptr %6, align 4
  store i32 1, ptr %14, align 4
  br label %110

22:                                               ; preds = %5
  %23 = load ptr, ptr %8, align 8, !tbaa !23
  %24 = icmp ne ptr %23, null
  br i1 %24, label %25, label %32

25:                                               ; preds = %22
  %26 = load ptr, ptr %7, align 8, !tbaa !3
  %27 = load i32, ptr %11, align 4, !tbaa !10
  %28 = load ptr, ptr %8, align 8, !tbaa !23
  %29 = call i32 (ptr, ptr, ...) @BIO_printf(ptr noundef %26, ptr noundef @.str.8, i32 noundef %27, ptr noundef @.str.1, ptr noundef %28)
  %30 = load i32, ptr %11, align 4, !tbaa !10
  %31 = add nsw i32 %30, 4
  store i32 %31, ptr %11, align 4, !tbaa !10
  br label %32

32:                                               ; preds = %25, %22
  store i32 0, ptr %12, align 4, !tbaa !10
  br label %33

33:                                               ; preds = %106, %32
  %34 = load i32, ptr %12, align 4, !tbaa !10
  %35 = load ptr, ptr %9, align 8, !tbaa !36
  %36 = call ptr @ossl_check_const_X509_EXTENSION_sk_type(ptr noundef %35)
  %37 = call i32 @OPENSSL_sk_num(ptr noundef %36)
  %38 = icmp slt i32 %34, %37
  br i1 %38, label %39, label %109

39:                                               ; preds = %33
  call void @llvm.lifetime.start.p0(i64 8, ptr %15) #4
  call void @llvm.lifetime.start.p0(i64 8, ptr %16) #4
  %40 = load ptr, ptr %9, align 8, !tbaa !36
  %41 = call ptr @ossl_check_const_X509_EXTENSION_sk_type(ptr noundef %40)
  %42 = load i32, ptr %12, align 4, !tbaa !10
  %43 = call ptr @OPENSSL_sk_value(ptr noundef %41, i32 noundef %42)
  store ptr %43, ptr %16, align 8, !tbaa !19
  %44 = load ptr, ptr %16, align 8, !tbaa !19
  %45 = call ptr @X509_EXTENSION_get_object(ptr noundef %44)
  store ptr %45, ptr %15, align 8, !tbaa !38
  %46 = load i64, ptr %10, align 8, !tbaa !21
  %47 = and i64 %46, 8192
  %48 = icmp ne i64 %47, 0
  br i1 %48, label %49, label %58

49:                                               ; preds = %39
  %50 = load ptr, ptr %15, align 8, !tbaa !38
  %51 = call i32 @OBJ_obj2nid(ptr noundef %50)
  %52 = icmp ne i32 %51, 82
  br i1 %52, label %53, label %58

53:                                               ; preds = %49
  %54 = load ptr, ptr %15, align 8, !tbaa !38
  %55 = call i32 @OBJ_obj2nid(ptr noundef %54)
  %56 = icmp ne i32 %55, 90
  br i1 %56, label %57, label %58

57:                                               ; preds = %53
  store i32 4, ptr %14, align 4
  br label %103

58:                                               ; preds = %53, %49, %39
  %59 = load i32, ptr %11, align 4, !tbaa !10
  %60 = icmp ne i32 %59, 0
  br i1 %60, label %61, label %67

61:                                               ; preds = %58
  %62 = load ptr, ptr %7, align 8, !tbaa !3
  %63 = load i32, ptr %11, align 4, !tbaa !10
  %64 = call i32 (ptr, ptr, ...) @BIO_printf(ptr noundef %62, ptr noundef @.str, i32 noundef %63, ptr noundef @.str.1)
  %65 = icmp sle i32 %64, 0
  br i1 %65, label %66, label %67

66:                                               ; preds = %61
  store i32 0, ptr %6, align 4
  store i32 1, ptr %14, align 4
  br label %103

67:                                               ; preds = %61, %58
  %68 = load ptr, ptr %7, align 8, !tbaa !3
  %69 = load ptr, ptr %15, align 8, !tbaa !38
  %70 = call i32 @i2a_ASN1_OBJECT(ptr noundef %68, ptr noundef %69)
  %71 = load ptr, ptr %16, align 8, !tbaa !19
  %72 = call i32 @X509_EXTENSION_get_critical(ptr noundef %71)
  store i32 %72, ptr %13, align 4, !tbaa !10
  %73 = load ptr, ptr %7, align 8, !tbaa !3
  %74 = load i32, ptr %13, align 4, !tbaa !10
  %75 = icmp ne i32 %74, 0
  %76 = select i1 %75, ptr @.str.10, ptr @.str.1
  %77 = call i32 (ptr, ptr, ...) @BIO_printf(ptr noundef %73, ptr noundef @.str.9, ptr noundef %76)
  %78 = icmp sle i32 %77, 0
  br i1 %78, label %79, label %80

79:                                               ; preds = %67
  store i32 0, ptr %6, align 4
  store i32 1, ptr %14, align 4
  br label %103

80:                                               ; preds = %67
  %81 = load ptr, ptr %7, align 8, !tbaa !3
  %82 = load ptr, ptr %16, align 8, !tbaa !19
  %83 = load i64, ptr %10, align 8, !tbaa !21
  %84 = load i32, ptr %11, align 4, !tbaa !10
  %85 = add nsw i32 %84, 4
  %86 = call i32 @X509V3_EXT_print(ptr noundef %81, ptr noundef %82, i64 noundef %83, i32 noundef %85)
  %87 = icmp ne i32 %86, 0
  br i1 %87, label %97, label %88

88:                                               ; preds = %80
  %89 = load ptr, ptr %7, align 8, !tbaa !3
  %90 = load i32, ptr %11, align 4, !tbaa !10
  %91 = add nsw i32 %90, 4
  %92 = call i32 (ptr, ptr, ...) @BIO_printf(ptr noundef %89, ptr noundef @.str, i32 noundef %91, ptr noundef @.str.1)
  %93 = load ptr, ptr %7, align 8, !tbaa !3
  %94 = load ptr, ptr %16, align 8, !tbaa !19
  %95 = call ptr @X509_EXTENSION_get_data(ptr noundef %94)
  %96 = call i32 @ASN1_STRING_print(ptr noundef %93, ptr noundef %95)
  br label %97

97:                                               ; preds = %88, %80
  %98 = load ptr, ptr %7, align 8, !tbaa !3
  %99 = call i32 @BIO_write(ptr noundef %98, ptr noundef @.str.3, i32 noundef 1)
  %100 = icmp sle i32 %99, 0
  br i1 %100, label %101, label %102

101:                                              ; preds = %97
  store i32 0, ptr %6, align 4
  store i32 1, ptr %14, align 4
  br label %103

102:                                              ; preds = %97
  store i32 0, ptr %14, align 4
  br label %103

103:                                              ; preds = %102, %101, %79, %66, %57
  call void @llvm.lifetime.end.p0(i64 8, ptr %16) #4
  call void @llvm.lifetime.end.p0(i64 8, ptr %15) #4
  %104 = load i32, ptr %14, align 4
  switch i32 %104, label %110 [
    i32 0, label %105
    i32 4, label %106
  ]

105:                                              ; preds = %103
  br label %106

106:                                              ; preds = %105, %103
  %107 = load i32, ptr %12, align 4, !tbaa !10
  %108 = add nsw i32 %107, 1
  store i32 %108, ptr %12, align 4, !tbaa !10
  br label %33, !llvm.loop !40

109:                                              ; preds = %33
  store i32 1, ptr %6, align 4
  store i32 1, ptr %14, align 4
  br label %110

110:                                              ; preds = %109, %103, %21
  call void @llvm.lifetime.end.p0(i64 4, ptr %13) #4
  call void @llvm.lifetime.end.p0(i64 4, ptr %12) #4
  %111 = load i32, ptr %6, align 4
  ret i32 %111
}