; Function Attrs: nounwind uwtable
define range(i32 0, 2) i32 @X509V3_extensions_print(ptr noundef %0, ptr noundef %1, ptr noundef %2, i64 noundef %3, i32 noundef %4) local_unnamed_addr #0 {
  %6 = tail call i32 @OPENSSL_sk_num(ptr noundef %2) #3
  %7 = icmp slt i32 %6, 1
  br i1 %7, label %.thread, label %8

8:                                                ; preds = %5
  %.not = icmp eq ptr %1, null
  br i1 %.not, label %12, label %9

9:                                                ; preds = %8
  %10 = tail call i32 (ptr, ptr, ...) @BIO_printf(ptr noundef %0, ptr noundef nonnull @.str.8, i32 noundef %4, ptr noundef nonnull @.str.1, ptr noundef nonnull %1) #3
  %11 = add nsw i32 %4, 4
  br label %12

12:                                               ; preds = %9, %8
  %.033 = phi i32 [ %11, %9 ], [ %4, %8 ]
  %13 = tail call i32 @OPENSSL_sk_num(ptr noundef %2) #3
  %14 = icmp sgt i32 %13, 0
  br i1 %14, label %.lr.ph, label %.thread

.lr.ph:                                           ; preds = %12
  %15 = and i64 %3, 8192
  %.not37 = icmp eq i64 %15, 0
  %.not40 = icmp eq i32 %.033, 0
  %16 = add nsw i32 %.033, 4
  br label %17

17:                                               ; preds = %.lr.ph, %43
  %.03544 = phi i32 [ 0, %.lr.ph ], [ %44, %43 ]
  %18 = tail call ptr @OPENSSL_sk_value(ptr noundef %2, i32 noundef %.03544) #3
  %19 = tail call ptr @X509_EXTENSION_get_object(ptr noundef %18) #3
  br i1 %.not37, label %24, label %20

20:                                               ; preds = %17
  %21 = tail call i32 @OBJ_obj2nid(ptr noundef %19) #3
  %.not38 = icmp eq i32 %21, 82
  br i1 %.not38, label %24, label %22

22:                                               ; preds = %20
  %23 = tail call i32 @OBJ_obj2nid(ptr noundef %19) #3
  %.not39 = icmp eq i32 %23, 90
  br i1 %.not39, label %24, label %43

24:                                               ; preds = %22, %20, %17
  br i1 %.not40, label %28, label %25

25:                                               ; preds = %24
  %26 = tail call i32 (ptr, ptr, ...) @BIO_printf(ptr noundef %0, ptr noundef nonnull @.str, i32 noundef %.033, ptr noundef nonnull @.str.1) #3
  %27 = icmp slt i32 %26, 1
  br i1 %27, label %.thread, label %28

28:                                               ; preds = %25, %24
  %29 = tail call i32 @i2a_ASN1_OBJECT(ptr noundef %0, ptr noundef %19) #3
  %30 = tail call i32 @X509_EXTENSION_get_critical(ptr noundef %18) #3
  %.not41 = icmp eq i32 %30, 0
  %31 = select i1 %.not41, ptr @.str.1, ptr @.str.10
  %32 = tail call i32 (ptr, ptr, ...) @BIO_printf(ptr noundef %0, ptr noundef nonnull @.str.9, ptr noundef nonnull %31) #3
  %33 = icmp slt i32 %32, 1
  br i1 %33, label %.thread, label %34

34:                                               ; preds = %28
  %35 = tail call i32 @X509V3_EXT_print(ptr noundef %0, ptr noundef %18, i64 noundef %3, i32 noundef %16)
  %.not42 = icmp eq i32 %35, 0
  br i1 %.not42, label %36, label %40

36:                                               ; preds = %34
  %37 = tail call i32 (ptr, ptr, ...) @BIO_printf(ptr noundef %0, ptr noundef nonnull @.str, i32 noundef %16, ptr noundef nonnull @.str.1) #3
  %38 = tail call ptr @X509_EXTENSION_get_data(ptr noundef %18) #3
  %39 = tail call i32 @ASN1_STRING_print(ptr noundef %0, ptr noundef %38) #3
  br label %40

40:                                               ; preds = %36, %34
  %41 = tail call i32 @BIO_write(ptr noundef %0, ptr noundef nonnull @.str.3, i32 noundef 1) #3
  %42 = icmp slt i32 %41, 1
  br i1 %42, label %.thread, label %43

43:                                               ; preds = %22, %40
  %44 = add nuw nsw i32 %.03544, 1
  %45 = tail call i32 @OPENSSL_sk_num(ptr noundef %2) #3
  %46 = icmp slt i32 %44, %45
  br i1 %46, label %17, label %.thread, !llvm.loop !22

.thread:                                          ; preds = %43, %25, %28, %40, %12, %5
  %.0 = phi i32 [ 1, %5 ], [ 1, %12 ], [ 1, %43 ], [ 0, %25 ], [ 0, %28 ], [ 0, %40 ]
  ret i32 %.0
}